; ModuleID = '20/1121.c'
source_filename = "20/1121.c"
target datalayout = "e-m:e-p270:32:32-p271:32:32-p272:64:64-i64:64-f80:128-n8:16:32:64-S128"
target triple = "x86_64-pc-linux-gnu"

@.str = private unnamed_addr constant [6 x i8] c"%s %s\00", align 1
@.str.1 = private unnamed_addr constant [4 x i8] c"%s\0A\00", align 1

; Function Attrs: noinline nounwind uwtable
define dso_local i32 @main() #0 {
  %1 = alloca i32, align 4
  %2 = alloca i32, align 4
  %3 = alloca i32, align 4
  %4 = alloca i32, align 4
  %5 = alloca i32, align 4
  %6 = alloca i32, align 4
  %7 = alloca [13 x i8], align 1
  %8 = alloca [13 x i8], align 1
  %9 = alloca [26 x i8], align 16
  store i32 0, i32* %1, align 4
  br label %10

10:                                               ; preds = %103, %0
  %11 = getelementptr inbounds [13 x i8], [13 x i8]* %7, i64 0, i64 0
  %12 = getelementptr inbounds [13 x i8], [13 x i8]* %8, i64 0, i64 0
  %13 = call i32 (i8*, ...) @__isoc99_scanf(i8* getelementptr inbounds ([6 x i8], [6 x i8]* @.str, i64 0, i64 0), i8* %11, i8* %12)
  %14 = icmp ne i32 %13, -1
  br i1 %14, label %15, label %109

15:                                               ; preds = %10
  %16 = getelementptr inbounds [13 x i8], [13 x i8]* %7, i64 0, i64 0
  %17 = call i64 @strlen(i8* %16) #3
  %18 = trunc i64 %17 to i32
  store i32 %18, i32* %4, align 4
  %19 = getelementptr inbounds [13 x i8], [13 x i8]* %8, i64 0, i64 0
  %20 = call i64 @strlen(i8* %19) #3
  %21 = trunc i64 %20 to i32
  store i32 %21, i32* %5, align 4
  store i32 0, i32* %3, align 4
  store i32 0, i32* %2, align 4
  br label %22

22:                                               ; preds = %41, %15
  %23 = load i32, i32* %2, align 4
  %24 = load i32, i32* %4, align 4
  %25 = icmp slt i32 %23, %24
  br i1 %25, label %26, label %44

26:                                               ; preds = %22
  %27 = load i32, i32* %2, align 4
  %28 = sext i32 %27 to i64
  %29 = getelementptr inbounds [13 x i8], [13 x i8]* %7, i64 0, i64 %28
  %30 = load i8, i8* %29, align 1
  %31 = sext i8 %30 to i32
  %32 = load i32, i32* %3, align 4
  %33 = sext i32 %32 to i64
  %34 = getelementptr inbounds [13 x i8], [13 x i8]* %7, i64 0, i64 %33
  %35 = load i8, i8* %34, align 1
  %36 = sext i8 %35 to i32
  %37 = icmp sgt i32 %31, %36
  br i1 %37, label %38, label %40

38:                                               ; preds = %26
  %39 = load i32, i32* %2, align 4
  store i32 %39, i32* %3, align 4
  br label %40

40:                                               ; preds = %38, %26
  br label %41

41:                                               ; preds = %40
  %42 = load i32, i32* %2, align 4
  %43 = add nsw i32 %42, 1
  store i32 %43, i32* %2, align 4
  br label %22

44:                                               ; preds = %22
  store i32 0, i32* %2, align 4
  br label %45

45:                                               ; preds = %58, %44
  %46 = load i32, i32* %2, align 4
  %47 = load i32, i32* %3, align 4
  %48 = add nsw i32 %47, 1
  %49 = icmp slt i32 %46, %48
  br i1 %49, label %50, label %61

50:                                               ; preds = %45
  %51 = load i32, i32* %2, align 4
  %52 = sext i32 %51 to i64
  %53 = getelementptr inbounds [13 x i8], [13 x i8]* %7, i64 0, i64 %52
  %54 = load i8, i8* %53, align 1
  %55 = load i32, i32* %2, align 4
  %56 = sext i32 %55 to i64
  %57 = getelementptr inbounds [26 x i8], [26 x i8]* %9, i64 0, i64 %56
  store i8 %54, i8* %57, align 1
  br label %58

58:                                               ; preds = %50
  %59 = load i32, i32* %2, align 4
  %60 = add nsw i32 %59, 1
  store i32 %60, i32* %2, align 4
  br label %45

61:                                               ; preds = %45
  br label %62

62:                                               ; preds = %80, %61
  %63 = load i32, i32* %2, align 4
  %64 = load i32, i32* %3, align 4
  %65 = load i32, i32* %5, align 4
  %66 = add nsw i32 %64, %65
  %67 = add nsw i32 %66, 1
  %68 = icmp slt i32 %63, %67
  br i1 %68, label %69, label %83

69:                                               ; preds = %62
  %70 = load i32, i32* %2, align 4
  %71 = load i32, i32* %3, align 4
  %72 = sub nsw i32 %70, %71
  %73 = sub nsw i32 %72, 1
  %74 = sext i32 %73 to i64
  %75 = getelementptr inbounds [13 x i8], [13 x i8]* %8, i64 0, i64 %74
  %76 = load i8, i8* %75, align 1
  %77 = load i32, i32* %2, align 4
  %78 = sext i32 %77 to i64
  %79 = getelementptr inbounds [26 x i8], [26 x i8]* %9, i64 0, i64 %78
  store i8 %76, i8* %79, align 1
  br label %80

80:                                               ; preds = %69
  %81 = load i32, i32* %2, align 4
  %82 = add nsw i32 %81, 1
  store i32 %82, i32* %2, align 4
  br label %62

83:                                               ; preds = %62
  br label %84

84:                                               ; preds = %100, %83
  %85 = load i32, i32* %2, align 4
  %86 = load i32, i32* %4, align 4
  %87 = load i32, i32* %5, align 4
  %88 = add nsw i32 %86, %87
  %89 = icmp slt i32 %85, %88
  br i1 %89, label %90, label %103

90:                                               ; preds = %84
  %91 = load i32, i32* %2, align 4
  %92 = load i32, i32* %5, align 4
  %93 = sub nsw i32 %91, %92
  %94 = sext i32 %93 to i64
  %95 = getelementptr inbounds [13 x i8], [13 x i8]* %7, i64 0, i64 %94
  %96 = load i8, i8* %95, align 1
  %97 = load i32, i32* %2, align 4
  %98 = sext i32 %97 to i64
  %99 = getelementptr inbounds [26 x i8], [26 x i8]* %9, i64 0, i64 %98
  store i8 %96, i8* %99, align 1
  br label %100

100:                                              ; preds = %90
  %101 = load i32, i32* %2, align 4
  %102 = add nsw i32 %101, 1
  store i32 %102, i32* %2, align 4
  br label %84

103:                                              ; preds = %84
  %104 = load i32, i32* %2, align 4
  %105 = sext i32 %104 to i64
  %106 = getelementptr inbounds [26 x i8], [26 x i8]* %9, i64 0, i64 %105
  store i8 0, i8* %106, align 1
  %107 = getelementptr inbounds [26 x i8], [26 x i8]* %9, i64 0, i64 0
  %108 = call i32 (i8*, ...) @printf(i8* getelementptr inbounds ([4 x i8], [4 x i8]* @.str.1, i64 0, i64 0), i8* %107)
  br label %10

109:                                              ; preds = %10
  %110 = load i32, i32* %1, align 4
  ret i32 %110
}

declare dso_local i32 @__isoc99_scanf(i8*, ...) #1

; Function Attrs: nounwind readonly
declare dso_local i64 @strlen(i8*) #2

declare dso_local i32 @printf(i8*, ...) #1


!llvm.module.flags = !{!0}
!llvm.ident = !{!1}

!0 = !{i32 1, !"wchar_size", i32 4}
!1 = !{!"clang version 10.0.0-4ubuntu1 "}
